target datalayout = "e-m:e-p270:32:32-p271:32:32-p272:64:64-i64:64-i128:128-f80:128-n8:16:32:64-S128"
target triple = "x86_64-pc-linux-gnu"

%struct.rb_data_type_struct = type { ptr, %struct.anon, ptr, ptr, i64 }
%struct.anon = type { ptr, ptr, ptr, ptr, [1 x ptr] }

@eEC_GROUP = internal global i64 0, align 8
@eEC_POINT = internal global i64 0, align 8
@id_i_group = internal global i64 0, align 8
@ossl_ec_group_type = internal constant %struct.rb_data_type_struct { ptr @.str.61, %struct.anon { ptr null, ptr @ossl_ec_group_free, ptr null, ptr null, [1 x ptr] zeroinitializer }, ptr null, ptr null, i64 33 }, align 8
@.str.59 = private unnamed_addr constant [28 x i8] c"EC_GROUP is not initialized\00", align 1
@ossl_ec_point_type = internal constant %struct.rb_data_type_struct { ptr @.str.87, %struct.anon { ptr null, ptr @ossl_ec_point_free, ptr null, ptr null, [1 x ptr] zeroinitializer }, ptr null, ptr null, i64 33 }, align 8
@.str.85 = private unnamed_addr constant [28 x i8] c"EC_POINT is not initialized\00", align 1
@.str.103 = private unnamed_addr constant [24 x i8] c"EC_POINT_is_at_infinity\00", align 1

; Function Attrs: nounwind sspstrong uwtable
define internal i64 @ossl_ec_point_is_at_infinity(i64 noundef %0) #0 {
  %2 = alloca i64, align 8
  %3 = alloca i64, align 8
  %4 = alloca ptr, align 8
  %5 = alloca ptr, align 8
  %6 = alloca i64, align 8
  %7 = alloca i32, align 4
  store i64 %0, ptr %3, align 8, !tbaa !6
  call void @llvm.lifetime.start.p0(i64 8, ptr %4) #19
  call void @llvm.lifetime.start.p0(i64 8, ptr %5) #19
  br label %8

8:                                                ; preds = %1
  %9 = load i64, ptr %3, align 8, !tbaa !6
  %10 = call ptr @rb_check_typeddata(i64 noundef %9, ptr noundef @ossl_ec_point_type)
  store ptr %10, ptr %4, align 8, !tbaa !37
  %11 = load ptr, ptr %4, align 8, !tbaa !37
  %12 = icmp eq ptr %11, null
  br i1 %12, label %13, label %15

13:                                               ; preds = %8
  %14 = load i64, ptr @eEC_POINT, align 8, !tbaa !6
  call void (i64, ptr, ...) @ossl_raise(i64 noundef %14, ptr noundef @.str.85) #20
  unreachable

15:                                               ; preds = %8
  br label %16

16:                                               ; preds = %15
  br label %17

17:                                               ; preds = %16
  br label %18

18:                                               ; preds = %17
  call void @llvm.lifetime.start.p0(i64 8, ptr %6) #19
  %19 = load i64, ptr %3, align 8, !tbaa !6
  %20 = load i64, ptr @id_i_group, align 8, !tbaa !6
  %21 = call i64 @rb_attr_get(i64 noundef %19, i64 noundef %20)
  store i64 %21, ptr %6, align 8, !tbaa !6
  br label %22

22:                                               ; preds = %18
  %23 = load i64, ptr %6, align 8, !tbaa !6
  %24 = call ptr @rb_check_typeddata(i64 noundef %23, ptr noundef @ossl_ec_group_type)
  store ptr %24, ptr %5, align 8, !tbaa !33
  %25 = load ptr, ptr %5, align 8, !tbaa !33
  %26 = icmp eq ptr %25, null
  br i1 %26, label %27, label %29

27:                                               ; preds = %22
  %28 = load i64, ptr @eEC_GROUP, align 8, !tbaa !6
  call void (i64, ptr, ...) @ossl_raise(i64 noundef %28, ptr noundef @.str.59) #20
  unreachable

29:                                               ; preds = %22
  br label %30

30:                                               ; preds = %29
  br label %31

31:                                               ; preds = %30
  call void @llvm.lifetime.end.p0(i64 8, ptr %6) #19
  br label %32

32:                                               ; preds = %31
  br label %33

33:                                               ; preds = %32
  %34 = load ptr, ptr %5, align 8, !tbaa !33
  %35 = load ptr, ptr %4, align 8, !tbaa !37
  %36 = call i32 @EC_POINT_is_at_infinity(ptr noundef %34, ptr noundef %35)
  switch i32 %36, label %39 [
    i32 1, label %37
    i32 0, label %38
  ]

37:                                               ; preds = %33
  store i64 20, ptr %2, align 8
  store i32 1, ptr %7, align 4
  br label %41

38:                                               ; preds = %33
  store i64 0, ptr %2, align 8
  store i32 1, ptr %7, align 4
  br label %41

39:                                               ; preds = %33
  %40 = load i64, ptr @eEC_POINT, align 8, !tbaa !6
  call void (i64, ptr, ...) @ossl_raise(i64 noundef %40, ptr noundef @.str.103) #20
  unreachable

41:                                               ; preds = %38, %37
  call void @llvm.lifetime.end.p0(i64 8, ptr %5) #19
  call void @llvm.lifetime.end.p0(i64 8, ptr %4) #19
  %42 = load i64, ptr %2, align 8
  ret i64 %42
}